Certificate:
    Data:
        Version: 1 (0x0)
        Serial Number: 1 (0x1)
        Signature Algorithm: md5WithRSAEncryption
        Issuer: O=The Sample Company, OU=client_dev/emailAddress=roach@basho.com, L=Metropolis, ST=New York, C=US, CN=BASHO ROOT CA
        Validity
            Not Before: Feb 26 22:33:59 2014 GMT
            Not After : Nov 22 22:33:59 2016 GMT
        Subject: C=US, ST=New York, O=The Sample Company, OU=RJC test, CN=localhost
        Subject Public Key Info:
            Public Key Algorithm: rsaEncryption
            RSA Public Key: (1024 bit)
                Modulus (1024 bit):
                    00:e2:af:6e:a5:e5:62:28:ea:9c:3a:af:bb:7a:71:
                    ae:26:05:61:0c:5a:be:65:95:ad:e5:cd:60:7b:b8:
                    d6:08:25:66:6d:38:51:26:c2:52:33:b9:6f:12:63:
                    7a:f5:43:7b:fa:f2:e2:9f:ba:e2:7f:ee:70:ac:e6:
                    be:9e:00:ca:a4:7e:cf:28:7d:c0:95:f6:21:51:27:
                    db:02:51:92:89:4b:85:35:6f:09:04:21:d5:b1:ab:
                    eb:76:49:e7:d1:c5:6d:24:0a:f4:6f:59:ef:19:09:
                    3f:0b:4b:23:24:6e:b7:1d:48:88:ef:74:b7:b8:9d:
                    9e:01:f2:81:5c:ed:0a:fe:ed
                Exponent: 65537 (0x10001)
    Signature Algorithm: md5WithRSAEncryption
        17:30:a1:15:03:15:c6:b5:1e:58:e6:97:4d:73:23:91:a4:10:
        9b:a0:f5:03:29:90:c2:19:92:1b:6b:51:04:13:94:29:6e:d2:
        bb:be:df:59:43:52:59:d7:f5:53:d1:2d:47:0c:73:c4:c3:22:
        0f:19:1a:c1:38:11:4f:d2:e7:21:8b:fa:53:7b:50:12:e7:0d:
        82:ee:f1:41:54:23:cb:6a:0b:8d:48:83:45:9c:2d:50:23:ac:
        8f:6f:67:e2:08:d9:aa:63:84:ce:3e:c4:68:5c:80:53:84:c9:
        06:3e:a9:5b:4b:b5:77:a6:34:a0:c6:8a:04:ec:ac:86:f1:a1:
        db:82
-----BEGIN CERTIFICATE-----
MIICczCCAdwCAQEwDQYJKoZIhvcNAQEEBQAwgZ8xGzAZBgNVBAoTElRoZSBTYW1w
bGUgQ29tcGFueTETMBEGA1UECxQKY2xpZW50X2RldjEeMBwGCSqGSIb3DQEJARYP
cm9hY2hAYmFzaG8uY29tMRMwEQYDVQQHEwpNZXRyb3BvbGlzMREwDwYDVQQIEwhO
ZXcgWW9yazELMAkGA1UEBhMCVVMxFjAUBgNVBAMTDUJBU0hPIFJPT1QgQ0EwHhcN
MTQwMjI2MjIzMzU5WhcNMTYxMTIyMjIzMzU5WjBkMQswCQYDVQQGEwJVUzERMA8G
A1UECBMITmV3IFlvcmsxGzAZBgNVBAoTElRoZSBTYW1wbGUgQ29tcGFueTERMA8G
A1UECxMIUkpDIHRlc3QxEjAQBgNVBAMTCWxvY2FsaG9zdDCBnzANBgkqhkiG9w0B
AQEFAAOBjQAwgYkCgYEA4q9upeViKOqcOq+7enGuJgVhDFq+ZZWt5c1ge7jWCCVm
bThRJsJSM7lvEmN69UN7+vLin7rif+5wrOa+ngDKpH7PKH3AlfYhUSfbAlGSiUuF
NW8JBCHVsavrdknn0cVtJAr0b1nvGQk/C0sjJG63HUiI73S3uJ2eAfKBXO0K/u0C
AwEAATANBgkqhkiG9w0BAQQFAAOBgQAXMKEVAxXGtR5Y5pdNcyORpBCboPUDKZDC
GZIba1EEE5QpbtK7vt9ZQ1JZ1/VT0S1HDHPEwyIPGRrBOBFP0uchi/pTe1AS5w2C
7vFBVCPLaguNSINFnC1QI6yPb2fiCNmqY4TOPsRoXIBThMkGPqlbS7V3pjSgxooE
7KyG8aHbgg==
-----END CERTIFICATE-----
